target datalayout = "e-m:e-p270:32:32-p271:32:32-p272:64:64-i64:64-i128:128-f80:128-n8:16:32:64-S128"
target triple = "x86_64-pc-linux-gnu"

@j2d_glPixelStorei = external global ptr, align 8
@j2d_glDisable = external global ptr, align 8

; Function Attrs: nounwind uwtable
define hidden void @OGLTR_DisableGlyphVertexCache(ptr noundef %0) #0 {
  %2 = alloca ptr, align 8
  store ptr %0, ptr %2, align 8
  call void (...) @OGLVertexCache_FlushVertexCache()
  %3 = load ptr, ptr %2, align 8
  call void @OGLVertexCache_RestoreColorState(ptr noundef %3)
  %4 = load ptr, ptr @j2d_glDisable, align 8
  call void %4(i32 noundef 3553)
  %5 = load ptr, ptr @j2d_glPixelStorei, align 8
  call void %5(i32 noundef 3317, i32 noundef 4)
  %6 = load ptr, ptr @j2d_glPixelStorei, align 8
  call void %6(i32 noundef 3316, i32 noundef 0)
  %7 = load ptr, ptr @j2d_glPixelStorei, align 8
  call void %7(i32 noundef 3315, i32 noundef 0)
  %8 = load ptr, ptr @j2d_glPixelStorei, align 8
  call void %8(i32 noundef 3314, i32 noundef 0)
  ret void
}