; Function Attrs: nounwind uwtable
define hidden void @OGLTR_DisableGlyphVertexCache(ptr noundef %0) local_unnamed_addr #0 {
  tail call void (...) @OGLVertexCache_FlushVertexCache() #5
  tail call void @OGLVertexCache_RestoreColorState(ptr noundef %0) #5
  %2 = load ptr, ptr @j2d_glDisable, align 8
  tail call void %2(i32 noundef 3553) #5
  %3 = load ptr, ptr @j2d_glPixelStorei, align 8
  tail call void %3(i32 noundef 3317, i32 noundef 4) #5
  %4 = load ptr, ptr @j2d_glPixelStorei, align 8
  tail call void %4(i32 noundef 3316, i32 noundef 0) #5
  %5 = load ptr, ptr @j2d_glPixelStorei, align 8
  tail call void %5(i32 noundef 3315, i32 noundef 0) #5
  %6 = load ptr, ptr @j2d_glPixelStorei, align 8
  tail call void %6(i32 noundef 3314, i32 noundef 0) #5
  ret void
}